; Function Attrs: nounwind uwtable
define hidden noundef ptr @_Py_set_typeparam_default(ptr noundef readonly captures(none) %0, ptr noundef %1, ptr noundef %2) local_unnamed_addr #0 {
  %4 = getelementptr inbounds nuw i8, ptr %0, i64 16
  %5 = load ptr, ptr %4, align 8, !tbaa !39
  %6 = getelementptr inbounds nuw i8, ptr %5, i64 224504
  %7 = load ptr, ptr %6, align 8, !tbaa !117
  %8 = getelementptr i8, ptr %1, i64 8
  %.val = load ptr, ptr %8, align 8, !tbaa !18
  %.not = icmp eq ptr %.val, %7
  br i1 %.not, label %9, label %26

9:                                                ; preds = %3
  %10 = getelementptr inbounds nuw i8, ptr %1, i64 64
  %11 = load ptr, ptr %10, align 8, !tbaa !16
  %12 = load i32, ptr %2, align 8, !tbaa !27
  %13 = icmp slt i32 %12, 0
  br i1 %13, label %_Py_NewRef.exit, label %14

14:                                               ; preds = %9
  %15 = add nuw i32 %12, 1
  store i32 %15, ptr %2, align 8, !tbaa !27
  br label %_Py_NewRef.exit

_Py_NewRef.exit:                                  ; preds = %9, %14
  store ptr %2, ptr %10, align 8, !tbaa !16
  %.not.i = icmp eq ptr %11, null
  br i1 %.not.i, label %Py_XDECREF.exit, label %16

16:                                               ; preds = %_Py_NewRef.exit
  %17 = load i32, ptr %11, align 8, !tbaa !27
  %.not.i.i = icmp sgt i32 %17, -1
  br i1 %.not.i.i, label %18, label %Py_XDECREF.exit

18:                                               ; preds = %16
  %19 = add nsw i32 %17, -1
  store i32 %19, ptr %11, align 8, !tbaa !27
  %20 = icmp eq i32 %19, 0
  br i1 %20, label %21, label %Py_XDECREF.exit

21:                                               ; preds = %18
  tail call void @_Py_Dealloc(ptr noundef nonnull %11) #8
  br label %Py_XDECREF.exit

Py_XDECREF.exit:                                  ; preds = %_Py_NewRef.exit, %16, %18, %21
  %22 = load i32, ptr %1, align 8, !tbaa !27
  %23 = icmp slt i32 %22, 0
  br i1 %23, label %_Py_NewRef.exit30, label %24

24:                                               ; preds = %Py_XDECREF.exit
  %25 = add nuw i32 %22, 1
  store i32 %25, ptr %1, align 8, !tbaa !27
  br label %_Py_NewRef.exit30

26:                                               ; preds = %3
  %27 = getelementptr inbounds nuw i8, ptr %5, i64 224520
  %28 = load ptr, ptr %27, align 8, !tbaa !125
  %.not41 = icmp eq ptr %.val, %28
  br i1 %.not41, label %29, label %46

29:                                               ; preds = %26
  %30 = getelementptr inbounds nuw i8, ptr %1, i64 40
  %31 = load ptr, ptr %30, align 8, !tbaa !16
  %32 = load i32, ptr %2, align 8, !tbaa !27
  %33 = icmp slt i32 %32, 0
  br i1 %33, label %_Py_NewRef.exit31, label %34

34:                                               ; preds = %29
  %35 = add nuw i32 %32, 1
  store i32 %35, ptr %2, align 8, !tbaa !27
  br label %_Py_NewRef.exit31

_Py_NewRef.exit31:                                ; preds = %29, %34
  store ptr %2, ptr %30, align 8, !tbaa !16
  %.not.i32 = icmp eq ptr %31, null
  br i1 %.not.i32, label %Py_XDECREF.exit34, label %36

36:                                               ; preds = %_Py_NewRef.exit31
  %37 = load i32, ptr %31, align 8, !tbaa !27
  %.not.i.i33 = icmp sgt i32 %37, -1
  br i1 %.not.i.i33, label %38, label %Py_XDECREF.exit34

38:                                               ; preds = %36
  %39 = add nsw i32 %37, -1
  store i32 %39, ptr %31, align 8, !tbaa !27
  %40 = icmp eq i32 %39, 0
  br i1 %40, label %41, label %Py_XDECREF.exit34

41:                                               ; preds = %38
  tail call void @_Py_Dealloc(ptr noundef nonnull %31) #8
  br label %Py_XDECREF.exit34

Py_XDECREF.exit34:                                ; preds = %_Py_NewRef.exit31, %36, %38, %41
  %42 = load i32, ptr %1, align 8, !tbaa !27
  %43 = icmp slt i32 %42, 0
  br i1 %43, label %_Py_NewRef.exit30, label %44

44:                                               ; preds = %Py_XDECREF.exit34
  %45 = add nuw i32 %42, 1
  store i32 %45, ptr %1, align 8, !tbaa !27
  br label %_Py_NewRef.exit30

46:                                               ; preds = %26
  %47 = getelementptr inbounds nuw i8, ptr %5, i64 224512
  %48 = load ptr, ptr %47, align 8, !tbaa !40
  %.not42 = icmp eq ptr %.val, %48
  br i1 %.not42, label %49, label %66

49:                                               ; preds = %46
  %50 = getelementptr inbounds nuw i8, ptr %1, i64 32
  %51 = load ptr, ptr %50, align 8, !tbaa !16
  %52 = load i32, ptr %2, align 8, !tbaa !27
  %53 = icmp slt i32 %52, 0
  br i1 %53, label %_Py_NewRef.exit36, label %54

54:                                               ; preds = %49
  %55 = add nuw i32 %52, 1
  store i32 %55, ptr %2, align 8, !tbaa !27
  br label %_Py_NewRef.exit36

_Py_NewRef.exit36:                                ; preds = %49, %54
  store ptr %2, ptr %50, align 8, !tbaa !16
  %.not.i37 = icmp eq ptr %51, null
  br i1 %.not.i37, label %Py_XDECREF.exit39, label %56

56:                                               ; preds = %_Py_NewRef.exit36
  %57 = load i32, ptr %51, align 8, !tbaa !27
  %.not.i.i38 = icmp sgt i32 %57, -1
  br i1 %.not.i.i38, label %58, label %Py_XDECREF.exit39

58:                                               ; preds = %56
  %59 = add nsw i32 %57, -1
  store i32 %59, ptr %51, align 8, !tbaa !27
  %60 = icmp eq i32 %59, 0
  br i1 %60, label %61, label %Py_XDECREF.exit39

61:                                               ; preds = %58
  tail call void @_Py_Dealloc(ptr noundef nonnull %51) #8
  br label %Py_XDECREF.exit39

Py_XDECREF.exit39:                                ; preds = %_Py_NewRef.exit36, %56, %58, %61
  %62 = load i32, ptr %1, align 8, !tbaa !27
  %63 = icmp slt i32 %62, 0
  br i1 %63, label %_Py_NewRef.exit30, label %64

64:                                               ; preds = %Py_XDECREF.exit39
  %65 = add nuw i32 %62, 1
  store i32 %65, ptr %1, align 8, !tbaa !27
  br label %_Py_NewRef.exit30

66:                                               ; preds = %46
  %67 = load ptr, ptr @PyExc_TypeError, align 8, !tbaa !16
  %68 = tail call ptr (ptr, ptr, ...) @PyErr_Format(ptr noundef %67, ptr noundef nonnull @.str.15, ptr noundef nonnull %1) #8
  br label %_Py_NewRef.exit30

_Py_NewRef.exit30:                                ; preds = %64, %Py_XDECREF.exit39, %44, %Py_XDECREF.exit34, %24, %Py_XDECREF.exit, %66
  %.0 = phi ptr [ null, %66 ], [ %1, %Py_XDECREF.exit ], [ %1, %24 ], [ %1, %Py_XDECREF.exit34 ], [ %1, %44 ], [ %1, %Py_XDECREF.exit39 ], [ %1, %64 ]
  ret ptr %.0
}